; Function Attrs: mustprogress nofree nounwind willreturn memory(read, inaccessiblemem: write) uwtable
define dso_local noundef zeroext i1 @_ZNK4llvm12MCAsmBackend28isDarwinCanonicalPersonalityEPKNS_8MCSymbolE(ptr nocapture noundef nonnull readnone align 8 dereferenceable(16) %0, ptr noundef readonly %1) local_unnamed_addr #7 align 2 {
  %.not = icmp eq ptr %1, null
  br i1 %.not, label %_ZN4llvmeqENS_9StringRefES0_.exit13, label %3

3:                                                ; preds = %2
  %4 = getelementptr inbounds nuw i8, ptr %1, i64 8
  %5 = load i64, ptr %4, align 8
  %6 = and i64 %5, 1792
  %7 = icmp eq i64 %6, 1024
  tail call void @llvm.assume(i1 %7)
  %8 = and i64 %5, 1
  %.not.i = icmp eq i64 %8, 0
  br i1 %.not.i, label %_ZN4llvmeqENS_9StringRefES0_.exit13, label %_ZNK4llvm8MCSymbol7getNameEv.exit

_ZNK4llvm8MCSymbol7getNameEv.exit:                ; preds = %3
  %9 = getelementptr inbounds i8, ptr %1, i64 -8
  %10 = load ptr, ptr %9, align 8
  %11 = getelementptr inbounds i8, ptr %10, i64 24
  %12 = load i64, ptr %10, align 8
  switch i64 %12, label %_ZN4llvmeqENS_9StringRefES0_.exit13 [
    i64 21, label %_ZN4llvmeqENS_9StringRefES0_.exit
    i64 22, label %14
  ]

_ZN4llvmeqENS_9StringRefES0_.exit:                ; preds = %_ZNK4llvm8MCSymbol7getNameEv.exit
  %bcmp.i = tail call i32 @bcmp(ptr noundef nonnull dereferenceable(21) %11, ptr noundef nonnull dereferenceable(21) @.str.23, i64 21)
  %13 = icmp eq i32 %bcmp.i, 0
  br label %_ZN4llvmeqENS_9StringRefES0_.exit13

14:                                               ; preds = %_ZNK4llvm8MCSymbol7getNameEv.exit
  %bcmp.i12 = tail call i32 @bcmp(ptr noundef nonnull dereferenceable(22) %11, ptr noundef nonnull dereferenceable(22) @.str.24, i64 22)
  %15 = icmp eq i32 %bcmp.i12, 0
  br label %_ZN4llvmeqENS_9StringRefES0_.exit13

_ZN4llvmeqENS_9StringRefES0_.exit13:              ; preds = %3, %_ZN4llvmeqENS_9StringRefES0_.exit, %_ZNK4llvm8MCSymbol7getNameEv.exit, %14, %2
  %.0 = phi i1 [ true, %2 ], [ %15, %14 ], [ false, %_ZNK4llvm8MCSymbol7getNameEv.exit ], [ %13, %_ZN4llvmeqENS_9StringRefES0_.exit ], [ false, %3 ]
  ret i1 %.0
}